; Function Attrs: nounwind uwtable
define range(i32 -2147483647, -2147483648) i32 @Gia_NodeMffcSizeSupp(ptr noundef %0, ptr noundef %1, ptr noundef captures(none) initializes((4, 8)) %2) local_unnamed_addr #2 {
  %4 = getelementptr inbounds nuw i8, ptr %2, i64 4
  store i32 0, ptr %4, align 4
  %5 = getelementptr inbounds nuw i8, ptr %0, i64 616
  %6 = load ptr, ptr %5, align 8
  %7 = icmp eq ptr %6, null
  br i1 %7, label %.thread.i, label %14

.thread.i:                                        ; preds = %3
  %8 = getelementptr i8, ptr %0, i64 24
  %.val.i = load i32, ptr %8, align 8
  %9 = add nsw i32 %.val.i, 100
  %10 = getelementptr inbounds nuw i8, ptr %0, i64 624
  store i32 %9, ptr %10, align 8
  %11 = sext i32 %9 to i64
  %12 = tail call noalias ptr @calloc(i64 noundef %11, i64 noundef 4) #38
  store ptr %12, ptr %5, align 8
  %13 = getelementptr inbounds nuw i8, ptr %0, i64 176
  store i32 0, ptr %13, align 8
  br label %Gia_ManIncrementTravId.exit

14:                                               ; preds = %3
  %.phi.trans.insert.i = getelementptr inbounds nuw i8, ptr %0, i64 624
  %.pre.i = load i32, ptr %.phi.trans.insert.i, align 8
  %.phi.trans.insert21.i = getelementptr i8, ptr %0, i64 24
  %.val1819.pre.i = load i32, ptr %.phi.trans.insert21.i, align 8
  %15 = icmp slt i32 %.pre.i, %.val1819.pre.i
  br i1 %15, label %.lr.ph.i, label %Gia_ManIncrementTravId.exit

.lr.ph.i:                                         ; preds = %14, %25
  %.val18.i12 = phi i32 [ %.val18.i, %25 ], [ %.val1819.pre.i, %14 ]
  %16 = phi ptr [ %27, %25 ], [ %6, %14 ]
  %17 = phi i32 [ %26, %25 ], [ %.pre.i, %14 ]
  %18 = shl nsw i32 %17, 1
  store i32 %18, ptr %.phi.trans.insert.i, align 8
  %.not.i = icmp eq ptr %16, null
  %19 = sext i32 %18 to i64
  %20 = shl nsw i64 %19, 2
  br i1 %.not.i, label %23, label %21

21:                                               ; preds = %.lr.ph.i
  %22 = tail call ptr @realloc(ptr noundef nonnull %16, i64 noundef %20) #39
  %.pre23.i = load i32, ptr %.phi.trans.insert.i, align 8
  %.pre24.i = sext i32 %.pre23.i to i64
  %.val18.i.pre = load i32, ptr %.phi.trans.insert21.i, align 8
  br label %25

23:                                               ; preds = %.lr.ph.i
  %24 = tail call noalias ptr @malloc(i64 noundef %20) #40
  br label %25

25:                                               ; preds = %23, %21
  %.val18.i = phi i32 [ %.val18.i12, %23 ], [ %.val18.i.pre, %21 ]
  %.pre-phi.i = phi i64 [ %19, %23 ], [ %.pre24.i, %21 ]
  %26 = phi i32 [ %18, %23 ], [ %.pre23.i, %21 ]
  %27 = phi ptr [ %24, %23 ], [ %22, %21 ]
  store ptr %27, ptr %5, align 8
  %28 = sdiv i32 %26, 2
  %29 = sext i32 %28 to i64
  %30 = getelementptr inbounds i32, ptr %27, i64 %29
  %31 = shl nsw i64 %.pre-phi.i, 1
  %32 = and i64 %31, 9223372036854775806
  tail call void @llvm.memset.p0.i64(ptr align 4 %30, i8 0, i64 %32, i1 false)
  %33 = icmp slt i32 %26, %.val18.i
  br i1 %33, label %.lr.ph.i, label %Gia_ManIncrementTravId.exit, !llvm.loop !7

Gia_ManIncrementTravId.exit:                      ; preds = %25, %.thread.i, %14
  %34 = getelementptr inbounds nuw i8, ptr %0, i64 176
  %35 = load i32, ptr %34, align 8
  %36 = add nsw i32 %35, 1
  store i32 %36, ptr %34, align 8
  %37 = tail call i32 @Gia_NodeDeref_rec(ptr noundef nonnull %0, ptr noundef %1)
  %38 = load i64, ptr %1, align 4
  %39 = and i64 %38, 536870911
  %40 = sub nsw i64 0, %39
  %41 = getelementptr inbounds %struct.Gia_Obj_t_, ptr %1, i64 %40
  tail call void @Gia_NodeCollect_rec(ptr noundef nonnull %0, ptr noundef nonnull %41, ptr noundef %2)
  %42 = load i64, ptr %1, align 4
  %43 = lshr i64 %42, 32
  %44 = and i64 %43, 536870911
  %45 = sub nsw i64 0, %44
  %46 = getelementptr inbounds %struct.Gia_Obj_t_, ptr %1, i64 %45
  tail call void @Gia_NodeCollect_rec(ptr noundef nonnull %0, ptr noundef nonnull %46, ptr noundef %2)
  %47 = tail call i32 @Gia_NodeRef_rec(ptr noundef nonnull %0, ptr noundef nonnull %1, i32 noundef 0)
  ret i32 %37
}